ARM GAS  /tmp/ccfgXbSd.s 			page 1


   1              		.syntax unified
   2              		.cpu cortex-m4
   3              		.fpu softvfp
   4              		.eabi_attribute 20, 1
   5              		.eabi_attribute 21, 1
   6              		.eabi_attribute 23, 3
   7              		.eabi_attribute 24, 1
   8              		.eabi_attribute 25, 1
   9              		.eabi_attribute 26, 1
  10              		.eabi_attribute 30, 6
  11              		.eabi_attribute 34, 1
  12              		.eabi_attribute 18, 4
  13              		.thumb
  14              		.file	"main.c"
  15              		.text
  16              	.Ltext0:
  17              		.cfi_sections	.debug_frame
  18              		.align	2
  19              		.p2align 4,,15
  20              		.thumb
  21              		.thumb_func
  22              		.type	chThdTerminatedX, %function
  23              	chThdTerminatedX:
  24              	.LFB180:
  25              		.file 1 "../ChibiOS/os/rt/include/chthreads.h"
  26              		.loc 1 218 0
  27              		.cfi_startproc
  28              		@ args = 0, pretend = 0, frame = 8
  29              		@ frame_needed = 0, uses_anonymous_args = 0
  30              		@ link register save eliminated.
  31 0000 82B0     		sub	sp, sp, #8
  32              		.cfi_def_cfa_offset 8
  33 0002 0190     		str	r0, [sp, #4]
  34              		.loc 1 220 0
  35 0004 019B     		ldr	r3, [sp, #4]
  36 0006 1B7F     		ldrb	r3, [r3, #28]	@ zero_extendqisi2
  37 0008 0F2B     		cmp	r3, #15
  38 000a 14BF     		ite	ne
  39 000c 0023     		movne	r3, #0
  40 000e 0123     		moveq	r3, #1
  41 0010 DBB2     		uxtb	r3, r3
  42              		.loc 1 221 0
  43 0012 1846     		mov	r0, r3
  44 0014 02B0     		add	sp, sp, #8
  45              		@ sp needed
  46 0016 7047     		bx	lr
  47              		.cfi_endproc
  48              	.LFE180:
  49              		.size	chThdTerminatedX, .-chThdTerminatedX
  50              		.align	2
  51 0018 AFF30080 		.p2align 4,,15
  51      AFF30080 
  52              		.thumb
  53              		.thumb_func
  54              		.type	chRegSetThreadName, %function
  55              	chRegSetThreadName:
  56              	.LFB187:
ARM GAS  /tmp/ccfgXbSd.s 			page 2


  57              		.file 2 "../ChibiOS/os/rt/include/chregistry.h"
  58              		.loc 2 132 0
  59              		.cfi_startproc
  60              		@ args = 0, pretend = 0, frame = 8
  61              		@ frame_needed = 0, uses_anonymous_args = 0
  62              		@ link register save eliminated.
  63 0020 82B0     		sub	sp, sp, #8
  64              		.cfi_def_cfa_offset 8
  65 0022 0190     		str	r0, [sp, #4]
  66              		.loc 2 135 0
  67 0024 024B     		ldr	r3, .L4
  68 0026 9B69     		ldr	r3, [r3, #24]
  69 0028 019A     		ldr	r2, [sp, #4]
  70 002a 9A61     		str	r2, [r3, #24]
  71              		.loc 2 139 0
  72 002c 02B0     		add	sp, sp, #8
  73              		@ sp needed
  74 002e 7047     		bx	lr
  75              	.L5:
  76              		.align	2
  77              	.L4:
  78 0030 00000000 		.word	ch
  79              		.cfi_endproc
  80              	.LFE187:
  81              		.size	chRegSetThreadName, .-chRegSetThreadName
  82              		.global	total_count
  83              		.bss
  84              		.align	2
  85              		.type	total_count, %object
  86              		.size	total_count, 4
  87              	total_count:
  88 0000 00000000 		.space	4
  89              		.global	current_count
  90              		.align	2
  91              		.type	current_count, %object
  92              		.size	current_count, 4
  93              	current_count:
  94 0004 00000000 		.space	4
  95              		.global	numLogs
  96              		.align	2
  97              		.type	numLogs, %object
  98              		.size	numLogs, 4
  99              	numLogs:
 100 0008 00000000 		.space	4
 101              		.global	minutes
 102              		.align	2
 103              		.type	minutes, %object
 104              		.size	minutes, 4
 105              	minutes:
 106 000c 00000000 		.space	4
 107              		.global	threshold
 108              		.data
 109              		.align	2
 110              		.type	threshold, %object
 111              		.size	threshold, 4
 112              	threshold:
 113 0000 E8030000 		.word	1000
ARM GAS  /tmp/ccfgXbSd.s 			page 3


 114              		.comm	count_data,4000,4
 115              		.comm	time_data,4000,4
 116              		.bss
 117              		.align	3
 118              	waCounterThread:
 119 0010 00000000 		.space	328
 119      00000000 
 119      00000000 
 119      00000000 
 119      00000000 
 120              		.section	.rodata
 121              		.align	2
 122              	.LC0:
 123 0000 626C696E 		.ascii	"blinker\000"
 123      6B657200 
 124              		.text
 125              		.align	2
 126 0034 AFF30080 		.p2align 4,,15
 126      AFF30080 
 126      AFF30080 
 127              		.thumb
 128              		.thumb_func
 129              		.type	counterThread, %function
 130              	counterThread:
 131              	.LFB267:
 132              		.file 3 "main.c"
 133              		.loc 3 64 0
 134              		.cfi_startproc
 135              		@ args = 0, pretend = 0, frame = 8
 136              		@ frame_needed = 0, uses_anonymous_args = 0
 137 0040 00B5     		push	{lr}
 138              		.cfi_def_cfa_offset 4
 139              		.cfi_offset 14, -4
 140 0042 83B0     		sub	sp, sp, #12
 141              		.cfi_def_cfa_offset 16
 142 0044 0190     		str	r0, [sp, #4]
 143              		.loc 3 66 0
 144 0046 0A48     		ldr	r0, .L8
 145 0048 FFF7EAFF 		bl	chRegSetThreadName
 146              	.L7:
 147              		.loc 3 68 0 discriminator 1
 148 004c 094B     		ldr	r3, .L8+4
 149 004e 4FF48052 		mov	r2, #4096
 150 0052 1A83     		strh	r2, [r3, #24]	@ movhi
 151              		.loc 3 69 0 discriminator 1
 152 0054 4FF4FA70 		mov	r0, #500
 153 0058 FFF7FEFF 		bl	chThdSleep
 154              		.loc 3 70 0 discriminator 1
 155 005c 054B     		ldr	r3, .L8+4
 156 005e 4FF48052 		mov	r2, #4096
 157 0062 5A83     		strh	r2, [r3, #26]	@ movhi
 158              		.loc 3 71 0 discriminator 1
 159 0064 4FF4FA70 		mov	r0, #500
 160 0068 FFF7FEFF 		bl	chThdSleep
 161              		.loc 3 72 0 discriminator 1
 162 006c EEE7     		b	.L7
 163              	.L9:
ARM GAS  /tmp/ccfgXbSd.s 			page 4


 164 006e 00BF     		.align	2
 165              	.L8:
 166 0070 00000000 		.word	.LC0
 167 0074 00180048 		.word	1207965696
 168              		.cfi_endproc
 169              	.LFE267:
 170              		.size	counterThread, .-counterThread
 171              		.bss
 172              		.align	3
 173              	waTimerThread:
 174 0158 00000000 		.space	328
 174      00000000 
 174      00000000 
 174      00000000 
 174      00000000 
 175              		.section	.rodata
 176              		.align	2
 177              	.LC1:
 178 0008 74696D65 		.ascii	"timer\000"
 178      7200
 179              		.text
 180              		.align	2
 181 0078 AFF30080 		.p2align 4,,15
 181      AFF30080 
 182              		.thumb
 183              		.thumb_func
 184              		.type	timerThread, %function
 185              	timerThread:
 186              	.LFB268:
 187              		.loc 3 84 0
 188              		.cfi_startproc
 189              		@ args = 0, pretend = 0, frame = 8
 190              		@ frame_needed = 0, uses_anonymous_args = 0
 191 0080 00B5     		push	{lr}
 192              		.cfi_def_cfa_offset 4
 193              		.cfi_offset 14, -4
 194 0082 83B0     		sub	sp, sp, #12
 195              		.cfi_def_cfa_offset 16
 196 0084 0190     		str	r0, [sp, #4]
 197              		.loc 3 86 0
 198 0086 1748     		ldr	r0, .L13
 199 0088 FFF7CAFF 		bl	chRegSetThreadName
 200              	.L12:
 201              		.loc 3 89 0
 202 008c 4EF66020 		movw	r0, #60000
 203 0090 FFF7FEFF 		bl	chThdSleep
 204              		.loc 3 91 0
 205 0094 144B     		ldr	r3, .L13+4
 206 0096 1B68     		ldr	r3, [r3]
 207 0098 002B     		cmp	r3, #0
 208 009a 12D0     		beq	.L11
 209              		.loc 3 92 0
 210 009c 134B     		ldr	r3, .L13+8
 211 009e 1A68     		ldr	r2, [r3]
 212 00a0 114B     		ldr	r3, .L13+4
 213 00a2 1968     		ldr	r1, [r3]
 214 00a4 124B     		ldr	r3, .L13+12
ARM GAS  /tmp/ccfgXbSd.s 			page 5


 215 00a6 43F82210 		str	r1, [r3, r2, lsl #2]
 216              		.loc 3 93 0
 217 00aa 104B     		ldr	r3, .L13+8
 218 00ac 1A68     		ldr	r2, [r3]
 219 00ae 114B     		ldr	r3, .L13+16
 220 00b0 1968     		ldr	r1, [r3]
 221 00b2 114B     		ldr	r3, .L13+20
 222 00b4 43F82210 		str	r1, [r3, r2, lsl #2]
 223              		.loc 3 94 0
 224 00b8 0C4B     		ldr	r3, .L13+8
 225 00ba 1B68     		ldr	r3, [r3]
 226 00bc 5A1C     		adds	r2, r3, #1
 227 00be 0B4B     		ldr	r3, .L13+8
 228 00c0 1A60     		str	r2, [r3]
 229              	.L11:
 230              		.loc 3 97 0
 231 00c2 0E4B     		ldr	r3, .L13+24
 232 00c4 1A68     		ldr	r2, [r3]
 233 00c6 084B     		ldr	r3, .L13+4
 234 00c8 1B68     		ldr	r3, [r3]
 235 00ca 1A44     		add	r2, r2, r3
 236 00cc 0B4B     		ldr	r3, .L13+24
 237 00ce 1A60     		str	r2, [r3]
 238              		.loc 3 99 0
 239 00d0 054B     		ldr	r3, .L13+4
 240 00d2 0022     		movs	r2, #0
 241 00d4 1A60     		str	r2, [r3]
 242              		.loc 3 101 0
 243 00d6 074B     		ldr	r3, .L13+16
 244 00d8 1B68     		ldr	r3, [r3]
 245 00da 5A1C     		adds	r2, r3, #1
 246 00dc 054B     		ldr	r3, .L13+16
 247 00de 1A60     		str	r2, [r3]
 248              		.loc 3 102 0
 249 00e0 D4E7     		b	.L12
 250              	.L14:
 251 00e2 00BF     		.align	2
 252              	.L13:
 253 00e4 08000000 		.word	.LC1
 254 00e8 00000000 		.word	current_count
 255 00ec 00000000 		.word	numLogs
 256 00f0 00000000 		.word	count_data
 257 00f4 00000000 		.word	minutes
 258 00f8 00000000 		.word	time_data
 259 00fc 00000000 		.word	total_count
 260              		.cfi_endproc
 261              	.LFE268:
 262              		.size	timerThread, .-timerThread
 263              		.bss
 264              		.align	3
 265              	waStepCounterThread:
 266 02a0 00000000 		.space	328
 266      00000000 
 266      00000000 
 266      00000000 
 266      00000000 
 267              		.section	.rodata
ARM GAS  /tmp/ccfgXbSd.s 			page 6


 268 000e 0000     		.align	2
 269              	.LC2:
 270 0010 73746570 		.ascii	"stepCounter\000"
 270      436F756E 
 270      74657200 
 271              		.align	2
 272              	.LC3:
 273 001c 4E657720 		.ascii	"New Activity Detected!\012\015CurrentCount: %d\012\012"
 273      41637469 
 273      76697479 
 273      20446574 
 273      65637465 
 274 0046 0D00     		.ascii	"\015\000"
 275              		.text
 276              		.align	2
 277              		.p2align 4,,15
 278              		.thumb
 279              		.thumb_func
 280              		.type	stepCounterThread, %function
 281              	stepCounterThread:
 282              	.LFB269:
 283              		.loc 3 106 0
 284              		.cfi_startproc
 285              		@ args = 0, pretend = 0, frame = 8
 286              		@ frame_needed = 0, uses_anonymous_args = 0
 287 0100 00B5     		push	{lr}
 288              		.cfi_def_cfa_offset 4
 289              		.cfi_offset 14, -4
 290 0102 83B0     		sub	sp, sp, #12
 291              		.cfi_def_cfa_offset 16
 292 0104 0190     		str	r0, [sp, #4]
 293              		.loc 3 108 0
 294 0106 0E48     		ldr	r0, .L18
 295 0108 FFF78AFF 		bl	chRegSetThreadName
 296              	.L17:
 297              		.loc 3 111 0
 298 010c FFF7FEFF 		bl	accelAboveThreshold
 299 0110 0346     		mov	r3, r0
 300 0112 002B     		cmp	r3, #0
 301 0114 0FD0     		beq	.L16
 302              		.loc 3 113 0
 303 0116 0B4B     		ldr	r3, .L18+4
 304 0118 1B68     		ldr	r3, [r3]
 305 011a 5A1C     		adds	r2, r3, #1
 306 011c 094B     		ldr	r3, .L18+4
 307 011e 1A60     		str	r2, [r3]
 308              		.loc 3 114 0
 309 0120 084B     		ldr	r3, .L18+4
 310 0122 1B68     		ldr	r3, [r3]
 311 0124 0848     		ldr	r0, .L18+8
 312 0126 0949     		ldr	r1, .L18+12
 313 0128 1A46     		mov	r2, r3
 314 012a FFF7FEFF 		bl	chprintf
 315              		.loc 3 115 0
 316 012e 41F28830 		movw	r0, #5000
 317 0132 FFF7FEFF 		bl	chThdSleep
 318              	.L16:
ARM GAS  /tmp/ccfgXbSd.s 			page 7


 319              		.loc 3 117 0
 320 0136 6420     		movs	r0, #100
 321 0138 FFF7FEFF 		bl	chThdSleep
 322              		.loc 3 118 0
 323 013c E6E7     		b	.L17
 324              	.L19:
 325 013e 00BF     		.align	2
 326              	.L18:
 327 0140 10000000 		.word	.LC2
 328 0144 00000000 		.word	current_count
 329 0148 00000000 		.word	SD5
 330 014c 1C000000 		.word	.LC3
 331              		.cfi_endproc
 332              	.LFE269:
 333              		.size	stepCounterThread, .-stepCounterThread
 334              		.section	.rodata
 335              		.align	2
 336              	.LC4:
 337 0048 54696D65 		.ascii	"Time: %6dmin | Count: %3d\012\015\000"
 337      3A202536 
 337      646D696E 
 337      207C2043 
 337      6F756E74 
 338              		.text
 339              		.align	2
 340              		.p2align 4,,15
 341              		.thumb
 342              		.thumb_func
 343              		.type	cmd_display_count, %function
 344              	cmd_display_count:
 345              	.LFB270:
 346              		.loc 3 122 0
 347              		.cfi_startproc
 348              		@ args = 0, pretend = 0, frame = 24
 349              		@ frame_needed = 0, uses_anonymous_args = 0
 350 0150 00B5     		push	{lr}
 351              		.cfi_def_cfa_offset 4
 352              		.cfi_offset 14, -4
 353 0152 87B0     		sub	sp, sp, #28
 354              		.cfi_def_cfa_offset 32
 355 0154 0390     		str	r0, [sp, #12]
 356 0156 0291     		str	r1, [sp, #8]
 357 0158 0192     		str	r2, [sp, #4]
 358              		.loc 3 125 0
 359 015a 0023     		movs	r3, #0
 360 015c 0593     		str	r3, [sp, #20]
 361              		.loc 3 127 0
 362 015e 0023     		movs	r3, #0
 363 0160 0593     		str	r3, [sp, #20]
 364 0162 0EE0     		b	.L21
 365              	.L22:
 366              		.loc 3 129 0 discriminator 2
 367 0164 0B4B     		ldr	r3, .L23
 368 0166 059A     		ldr	r2, [sp, #20]
 369 0168 53F82220 		ldr	r2, [r3, r2, lsl #2]
 370 016c 0A4B     		ldr	r3, .L23+4
 371 016e 0599     		ldr	r1, [sp, #20]
ARM GAS  /tmp/ccfgXbSd.s 			page 8


 372 0170 53F82130 		ldr	r3, [r3, r1, lsl #2]
 373 0174 0398     		ldr	r0, [sp, #12]
 374 0176 0949     		ldr	r1, .L23+8
 375 0178 FFF7FEFF 		bl	chprintf
 376              		.loc 3 127 0 discriminator 2
 377 017c 059B     		ldr	r3, [sp, #20]
 378 017e 0133     		adds	r3, r3, #1
 379 0180 0593     		str	r3, [sp, #20]
 380              	.L21:
 381              		.loc 3 127 0 is_stmt 0 discriminator 1
 382 0182 074B     		ldr	r3, .L23+12
 383 0184 1B68     		ldr	r3, [r3]
 384 0186 059A     		ldr	r2, [sp, #20]
 385 0188 9A42     		cmp	r2, r3
 386 018a EBDB     		blt	.L22
 387              		.loc 3 131 0 is_stmt 1
 388 018c 07B0     		add	sp, sp, #28
 389              		@ sp needed
 390 018e 5DF804FB 		ldr	pc, [sp], #4
 391              	.L24:
 392 0192 00BF     		.align	2
 393              	.L23:
 394 0194 00000000 		.word	time_data
 395 0198 00000000 		.word	count_data
 396 019c 48000000 		.word	.LC4
 397 01a0 00000000 		.word	numLogs
 398              		.cfi_endproc
 399              	.LFE270:
 400              		.size	cmd_display_count, .-cmd_display_count
 401              		.align	2
 402 01a4 AFF30080 		.p2align 4,,15
 402      AFF30080 
 402      AFF30080 
 403              		.global	accelAboveThreshold
 404              		.thumb
 405              		.thumb_func
 406              		.type	accelAboveThreshold, %function
 407              	accelAboveThreshold:
 408              	.LFB271:
 409              		.loc 3 133 0
 410              		.cfi_startproc
 411              		@ args = 0, pretend = 0, frame = 16
 412              		@ frame_needed = 0, uses_anonymous_args = 0
 413 01b0 00B5     		push	{lr}
 414              		.cfi_def_cfa_offset 4
 415              		.cfi_offset 14, -4
 416 01b2 85B0     		sub	sp, sp, #20
 417              		.cfi_def_cfa_offset 24
 418              		.loc 3 137 0
 419 01b4 01AB     		add	r3, sp, #4
 420 01b6 0020     		movs	r0, #0
 421 01b8 1946     		mov	r1, r3
 422 01ba FFF7FEFF 		bl	LSM303AGR_ACC_Get_Acceleration
 423              		.loc 3 139 0
 424 01be 039A     		ldr	r2, [sp, #12]
 425 01c0 054B     		ldr	r3, .L29
 426 01c2 1B68     		ldr	r3, [r3]
ARM GAS  /tmp/ccfgXbSd.s 			page 9


 427 01c4 9A42     		cmp	r2, r3
 428 01c6 01DD     		ble	.L26
 429              		.loc 3 141 0
 430 01c8 0123     		movs	r3, #1
 431 01ca 00E0     		b	.L28
 432              	.L26:
 433              		.loc 3 144 0
 434 01cc 0023     		movs	r3, #0
 435              	.L28:
 436              		.loc 3 146 0
 437 01ce 1846     		mov	r0, r3
 438 01d0 05B0     		add	sp, sp, #20
 439              		@ sp needed
 440 01d2 5DF804FB 		ldr	pc, [sp], #4
 441              	.L30:
 442 01d6 00BF     		.align	2
 443              	.L29:
 444 01d8 00000000 		.word	threshold
 445              		.cfi_endproc
 446              	.LFE271:
 447              		.size	accelAboveThreshold, .-accelAboveThreshold
 448              		.section	.rodata
 449              		.align	2
 450              	.LC5:
 451 0064 25730A0D 		.ascii	"%s\012\015\000"
 451      00
 452              		.text
 453              		.align	2
 454 01dc AFF30080 		.p2align 4,,15
 455              		.thumb
 456              		.thumb_func
 457              		.type	cmd_myecho, %function
 458              	cmd_myecho:
 459              	.LFB272:
 460              		.loc 3 149 0
 461              		.cfi_startproc
 462              		@ args = 0, pretend = 0, frame = 24
 463              		@ frame_needed = 0, uses_anonymous_args = 0
 464 01e0 00B5     		push	{lr}
 465              		.cfi_def_cfa_offset 4
 466              		.cfi_offset 14, -4
 467 01e2 87B0     		sub	sp, sp, #28
 468              		.cfi_def_cfa_offset 32
 469 01e4 0390     		str	r0, [sp, #12]
 470 01e6 0291     		str	r1, [sp, #8]
 471 01e8 0192     		str	r2, [sp, #4]
 472              		.loc 3 154 0
 473 01ea 0023     		movs	r3, #0
 474 01ec 0593     		str	r3, [sp, #20]
 475 01ee 0CE0     		b	.L32
 476              	.L33:
 477              		.loc 3 155 0 discriminator 2
 478 01f0 059B     		ldr	r3, [sp, #20]
 479 01f2 9B00     		lsls	r3, r3, #2
 480 01f4 019A     		ldr	r2, [sp, #4]
 481 01f6 1344     		add	r3, r3, r2
 482 01f8 1B68     		ldr	r3, [r3]
ARM GAS  /tmp/ccfgXbSd.s 			page 10


 483 01fa 0398     		ldr	r0, [sp, #12]
 484 01fc 0649     		ldr	r1, .L34
 485 01fe 1A46     		mov	r2, r3
 486 0200 FFF7FEFF 		bl	chprintf
 487              		.loc 3 154 0 discriminator 2
 488 0204 059B     		ldr	r3, [sp, #20]
 489 0206 0133     		adds	r3, r3, #1
 490 0208 0593     		str	r3, [sp, #20]
 491              	.L32:
 492              		.loc 3 154 0 is_stmt 0 discriminator 1
 493 020a 059A     		ldr	r2, [sp, #20]
 494 020c 029B     		ldr	r3, [sp, #8]
 495 020e 9A42     		cmp	r2, r3
 496 0210 EEDB     		blt	.L33
 497              		.loc 3 157 0 is_stmt 1
 498 0212 07B0     		add	sp, sp, #28
 499              		@ sp needed
 500 0214 5DF804FB 		ldr	pc, [sp], #4
 501              	.L35:
 502              		.align	2
 503              	.L34:
 504 0218 64000000 		.word	.LC5
 505              		.cfi_endproc
 506              	.LFE272:
 507              		.size	cmd_myecho, .-cmd_myecho
 508              		.section	.rodata
 509 0069 000000   		.align	2
 510              	.LC6:
 511 006c 6D796563 		.ascii	"myecho\000"
 511      686F00
 512 0073 00       		.align	2
 513              	.LC7:
 514 0074 64697370 		.ascii	"display_count\000"
 514      6C61795F 
 514      636F756E 
 514      7400
 515 0082 0000     		.align	2
 516              		.type	commands, %object
 517              		.size	commands, 24
 518              	commands:
 519 0084 6C000000 		.word	.LC6
 520 0088 00000000 		.word	cmd_myecho
 521 008c 74000000 		.word	.LC7
 522 0090 00000000 		.word	cmd_display_count
 523 0094 00000000 		.word	0
 524 0098 00000000 		.word	0
 525              		.align	2
 526              		.type	shell_cfg1, %object
 527              		.size	shell_cfg1, 8
 528              	shell_cfg1:
 529 009c 00000000 		.word	SD5
 530 00a0 84000000 		.word	commands
 531              		.align	2
 532              	.LC8:
 533 00a4 0A0D5570 		.ascii	"\012\015Up and Running\012\015\000"
 533      20616E64 
 533      2052756E 
ARM GAS  /tmp/ccfgXbSd.s 			page 11


 533      6E696E67 
 533      0A0D00
 534 00b7 00       		.text
 535              		.align	2
 536 021c AFF30080 		.p2align 4,,15
 537              		.global	main
 538              		.thumb
 539              		.thumb_func
 540              		.type	main, %function
 541              	main:
 542              	.LFB273:
 543              		.loc 3 173 0
 544              		.cfi_startproc
 545              		@ args = 0, pretend = 0, frame = 0
 546              		@ frame_needed = 0, uses_anonymous_args = 0
 547 0220 00B5     		push	{lr}
 548              		.cfi_def_cfa_offset 4
 549              		.cfi_offset 14, -4
 550 0222 83B0     		sub	sp, sp, #12
 551              		.cfi_def_cfa_offset 16
 552              		.loc 3 183 0
 553 0224 FFF7FEFF 		bl	halInit
 554              		.loc 3 184 0
 555 0228 FFF7FEFF 		bl	chSysInit
 556              		.loc 3 186 0
 557 022c FFF7FEFF 		bl	LSM303AGR_ACC_Init
 558              		.loc 3 187 0
 559 0230 0020     		movs	r0, #0
 560 0232 9021     		movs	r1, #144
 561 0234 FFF7FEFF 		bl	LSM303AGR_ACC_W_ODR
 562              		.loc 3 191 0
 563 0238 2348     		ldr	r0, .L40
 564 023a 0021     		movs	r1, #0
 565 023c FFF7FEFF 		bl	sdStart
 566              		.loc 3 192 0
 567 0240 2148     		ldr	r0, .L40
 568 0242 2249     		ldr	r1, .L40+4
 569 0244 FFF7FEFF 		bl	chprintf
 570              		.loc 3 195 0
 571 0248 FFF7FEFF 		bl	shellInit
 572              		.loc 3 196 0
 573 024c 0023     		movs	r3, #0
 574 024e 0093     		str	r3, [sp]
 575 0250 1F48     		ldr	r0, .L40+8
 576 0252 4FF4A471 		mov	r1, #328
 577 0256 4122     		movs	r2, #65
 578 0258 1E4B     		ldr	r3, .L40+12
 579 025a FFF7FEFF 		bl	chThdCreateStatic
 580              		.loc 3 198 0
 581 025e 0023     		movs	r3, #0
 582 0260 0093     		str	r3, [sp]
 583 0262 1D48     		ldr	r0, .L40+16
 584 0264 4FF4A471 		mov	r1, #328
 585 0268 4122     		movs	r2, #65
 586 026a 1C4B     		ldr	r3, .L40+20
 587 026c FFF7FEFF 		bl	chThdCreateStatic
 588              		.loc 3 199 0
ARM GAS  /tmp/ccfgXbSd.s 			page 12


 589 0270 0023     		movs	r3, #0
 590 0272 0093     		str	r3, [sp]
 591 0274 1A48     		ldr	r0, .L40+24
 592 0276 4FF4A471 		mov	r1, #328
 593 027a 4122     		movs	r2, #65
 594 027c 194B     		ldr	r3, .L40+28
 595 027e FFF7FEFF 		bl	chThdCreateStatic
 596              	.L39:
 597              		.loc 3 201 0
 598 0282 194B     		ldr	r3, .L40+32
 599 0284 1B68     		ldr	r3, [r3]
 600 0286 002B     		cmp	r3, #0
 601 0288 09D1     		bne	.L37
 602              		.loc 3 202 0
 603 028a 1848     		ldr	r0, .L40+36
 604 028c 40F6C801 		movw	r1, #2248
 605 0290 4022     		movs	r2, #64
 606 0292 FFF7FEFF 		bl	shellCreate
 607 0296 0246     		mov	r2, r0
 608 0298 134B     		ldr	r3, .L40+32
 609 029a 1A60     		str	r2, [r3]
 610 029c 0FE0     		b	.L38
 611              	.L37:
 612              		.loc 3 204 0
 613 029e 124B     		ldr	r3, .L40+32
 614 02a0 1B68     		ldr	r3, [r3]
 615 02a2 1846     		mov	r0, r3
 616 02a4 FFF7ACFE 		bl	chThdTerminatedX
 617 02a8 0346     		mov	r3, r0
 618 02aa 002B     		cmp	r3, #0
 619 02ac 07D0     		beq	.L38
 620              		.loc 3 205 0
 621 02ae 0E4B     		ldr	r3, .L40+32
 622 02b0 1B68     		ldr	r3, [r3]
 623 02b2 1846     		mov	r0, r3
 624 02b4 FFF7FEFF 		bl	chThdRelease
 625              		.loc 3 206 0
 626 02b8 0B4B     		ldr	r3, .L40+32
 627 02ba 0022     		movs	r2, #0
 628 02bc 1A60     		str	r2, [r3]
 629              	.L38:
 630              		.loc 3 208 0
 631 02be 4FF47A70 		mov	r0, #1000
 632 02c2 FFF7FEFF 		bl	chThdSleep
 633              		.loc 3 209 0
 634 02c6 DCE7     		b	.L39
 635              	.L41:
 636              		.align	2
 637              	.L40:
 638 02c8 00000000 		.word	SD5
 639 02cc A4000000 		.word	.LC8
 640 02d0 10000000 		.word	waCounterThread
 641 02d4 00000000 		.word	counterThread
 642 02d8 58010000 		.word	waTimerThread
 643 02dc 00000000 		.word	timerThread
 644 02e0 A0020000 		.word	waStepCounterThread
 645 02e4 00000000 		.word	stepCounterThread
ARM GAS  /tmp/ccfgXbSd.s 			page 13


 646 02e8 E8030000 		.word	shelltp.10093
 647 02ec 9C000000 		.word	shell_cfg1
 648              		.cfi_endproc
 649              	.LFE273:
 650              		.size	main, .-main
 651              		.bss
 652              		.align	2
 653              	shelltp.10093:
 654 03e8 00000000 		.space	4
 655 03ec 00000000 		.text
 656              	.Letext0:
 657              		.file 4 "/nfs/nfs5/home/research/hardware/arm2/gcc-arm-embedded/gcc-arm-none-eabi-4_8-2014q2/lib/g
 658              		.file 5 "/nfs/nfs5/home/research/hardware/arm2/gcc-arm-embedded/gcc-arm-none-eabi-4_8-2014q2/arm-n
 659              		.file 6 "/nfs/nfs5/home/research/hardware/arm2/gcc-arm-embedded/gcc-arm-none-eabi-4_8-2014q2/arm-n
 660              		.file 7 "../ChibiOS/os/rt/ports/ARMCMx/compilers/GCC/chtypes.h"
 661              		.file 8 "../ChibiOS/os/rt/include/chsystypes.h"
 662              		.file 9 "../ChibiOS/os/rt/include/chschd.h"
 663              		.file 10 "../ChibiOS/os/ext/CMSIS/ST/STM32L4xx/stm32l476xx.h"
 664              		.file 11 "../ChibiOS/os/rt/ports/ARMCMx/chcore.h"
 665              		.file 12 "../ChibiOS/os/rt/ports/ARMCMx/chcore_v7m.h"
 666              		.file 13 "../ChibiOS/os/rt/include/chtm.h"
 667              		.file 14 "../ChibiOS/os/rt/include/chsem.h"
 668              		.file 15 "../ChibiOS/os/rt/include/chmtx.h"
 669              		.file 16 "../ChibiOS/os/rt/include/chevents.h"
 670              		.file 17 "../ChibiOS/os/rt/include/chqueues.h"
 671              		.file 18 "../ChibiOS/os/rt/include/chstreams.h"
 672              		.file 19 "../ChibiOS/os/hal/ports/STM32/LLD/GPIOv3/pal_lld.h"
 673              		.file 20 "../ChibiOS/os/hal/include/serial.h"
 674              		.file 21 "../ChibiOS/os/various/shell.h"
 675              		.file 22 "BSP/Components/lsm303agr/LSM303AGR_ACC_driver.h"
 676              		.file 23 "../ChibiOS/os/hal/ports/STM32/LLD/USARTv2/serial_lld.h"
 677              		.file 24 "../ChibiOS/os/ext/CMSIS/include/core_cm4.h"